target datalayout = "e-m:e-p270:32:32-p271:32:32-p272:64:64-i64:64-i128:128-f80:128-n8:16:32:64-S128"
target triple = "x86_64-pc-linux-gnu"

%struct.b2HashSet = type { ptr, i32, i32 }
%struct.b2IntArray = type { ptr, i32, i32 }
%struct.b2DynamicTree = type { ptr, i32, i32, i32, i32, i32, ptr, ptr, ptr, ptr, i32 }
%struct.b2BroadPhase = type { [3 x %struct.b2DynamicTree], i32, %struct.b2HashSet, %struct.b2IntArray, ptr, ptr, i32, %struct.b2AtomicInt, %struct.b2HashSet }
%struct.b2AtomicInt = type { i32 }
%struct.b2AABB = type { %struct.b2Vec2, %struct.b2Vec2 }
%struct.b2Vec2 = type { float, float }
%struct.b2World = type { %struct.b2ArenaAllocator, %struct.b2BroadPhase, %struct.b2ConstraintGraph, %struct.b2IdPool, %struct.b2BodyArray, %struct.b2IdPool, %struct.b2SolverSetArray, %struct.b2IdPool, %struct.b2JointArray, %struct.b2IdPool, %struct.b2ContactArray, %struct.b2IdPool, %struct.b2IslandArray, %struct.b2IdPool, %struct.b2IdPool, %struct.b2ShapeArray, %struct.b2ChainShapeArray, %struct.b2SensorArray, %struct.b2TaskContextArray, %struct.b2SensorTaskContextArray, %struct.b2BodyMoveEventArray, %struct.b2SensorBeginTouchEventArray, %struct.b2ContactBeginTouchEventArray, [2 x %struct.b2SensorEndTouchEventArray], [2 x %struct.b2ContactEndTouchEventArray], i32, %struct.b2ContactHitEventArray, %struct.b2BitSet, %struct.b2BitSet, %struct.b2BitSet, i64, i32, %struct.b2Vec2, float, float, float, float, float, float, float, float, ptr, ptr, i16, %struct.b2Profile, ptr, ptr, ptr, ptr, i32, ptr, ptr, ptr, ptr, ptr, float, i32, i32, i16, i8, i8, i8, i8, i8, i8 }
%struct.b2ArenaAllocator = type { ptr, i32, i32, i32, i32, %struct.b2ArenaEntryArray }
%struct.b2ArenaEntryArray = type { ptr, i32, i32 }
%struct.b2ConstraintGraph = type { [12 x %struct.b2GraphColor] }
%struct.b2GraphColor = type { %struct.b2BitSet, %struct.b2ContactSimArray, %struct.b2JointSimArray, %union.anon }
%struct.b2ContactSimArray = type { ptr, i32, i32 }
%struct.b2JointSimArray = type { ptr, i32, i32 }
%union.anon = type { ptr }
%struct.b2BodyArray = type { ptr, i32, i32 }
%struct.b2SolverSetArray = type { ptr, i32, i32 }
%struct.b2JointArray = type { ptr, i32, i32 }
%struct.b2ContactArray = type { ptr, i32, i32 }
%struct.b2IslandArray = type { ptr, i32, i32 }
%struct.b2IdPool = type { %struct.b2IntArray, i32 }
%struct.b2ShapeArray = type { ptr, i32, i32 }
%struct.b2ChainShapeArray = type { ptr, i32, i32 }
%struct.b2SensorArray = type { ptr, i32, i32 }
%struct.b2TaskContextArray = type { ptr, i32, i32 }
%struct.b2SensorTaskContextArray = type { ptr, i32, i32 }
%struct.b2BodyMoveEventArray = type { ptr, i32, i32 }
%struct.b2SensorBeginTouchEventArray = type { ptr, i32, i32 }
%struct.b2ContactBeginTouchEventArray = type { ptr, i32, i32 }
%struct.b2SensorEndTouchEventArray = type { ptr, i32, i32 }
%struct.b2ContactEndTouchEventArray = type { ptr, i32, i32 }
%struct.b2ContactHitEventArray = type { ptr, i32, i32 }
%struct.b2BitSet = type { ptr, i32, i32 }
%struct.b2Profile = type { float, float, float, float, float, float, float, float, float, float, float, float, float, float, float, float, float, float, float, float, float, float }
%struct.b2MoveResult = type { ptr }
%struct.b2QueryPairContext = type { ptr, ptr, i32, i32, i32 }
%struct.b2TreeStats = type { i32, i32 }

; Function Attrs: nounwind uwtable
define internal void @b2FindPairsTask(i32 noundef %0, i32 noundef %1, i32 noundef %2, ptr noundef %3) #6 {
  %5 = alloca i32, align 4
  %6 = alloca i32, align 4
  %7 = alloca i32, align 4
  %8 = alloca ptr, align 8
  %9 = alloca ptr, align 8
  %10 = alloca ptr, align 8
  %11 = alloca %struct.b2QueryPairContext, align 8
  %12 = alloca i32, align 4
  %13 = alloca i32, align 4
  %14 = alloca i32, align 4
  %15 = alloca i32, align 4
  %16 = alloca i32, align 4
  %17 = alloca ptr, align 8
  %18 = alloca %struct.b2AABB, align 4
  %19 = alloca %struct.b2TreeStats, align 4
  %20 = alloca %struct.b2TreeStats, align 4
  %21 = alloca %struct.b2TreeStats, align 4
  %22 = alloca %struct.b2TreeStats, align 4
  store i32 %0, ptr %5, align 4, !tbaa !20
  store i32 %1, ptr %6, align 4, !tbaa !20
  store i32 %2, ptr %7, align 4, !tbaa !20
  store ptr %3, ptr %8, align 8, !tbaa !94
  call void @llvm.lifetime.start.p0(i64 8, ptr %9) #8
  %23 = load ptr, ptr %8, align 8, !tbaa !94
  store ptr %23, ptr %9, align 8, !tbaa !47
  call void @llvm.lifetime.start.p0(i64 8, ptr %10) #8
  %24 = load ptr, ptr %9, align 8, !tbaa !47
  %25 = getelementptr inbounds nuw %struct.b2World, ptr %24, i32 0, i32 1
  store ptr %25, ptr %10, align 8, !tbaa !3
  call void @llvm.lifetime.start.p0(i64 32, ptr %11) #8
  %26 = load ptr, ptr %9, align 8, !tbaa !47
  %27 = getelementptr inbounds nuw %struct.b2QueryPairContext, ptr %11, i32 0, i32 0
  store ptr %26, ptr %27, align 8, !tbaa !109
  call void @llvm.lifetime.start.p0(i64 4, ptr %12) #8
  %28 = load i32, ptr %5, align 4, !tbaa !20
  store i32 %28, ptr %12, align 4, !tbaa !20
  br label %29

29:                                               ; preds = %147, %4
  %30 = load i32, ptr %12, align 4, !tbaa !20
  %31 = load i32, ptr %6, align 4, !tbaa !20
  %32 = icmp slt i32 %30, %31
  br i1 %32, label %34, label %33

33:                                               ; preds = %29
  store i32 2, ptr %13, align 4
  call void @llvm.lifetime.end.p0(i64 4, ptr %12) #8
  br label %150

34:                                               ; preds = %29
  %35 = load ptr, ptr %10, align 8, !tbaa !3
  %36 = getelementptr inbounds nuw %struct.b2BroadPhase, ptr %35, i32 0, i32 4
  %37 = load ptr, ptr %36, align 8, !tbaa !23
  %38 = load i32, ptr %12, align 4, !tbaa !20
  %39 = sext i32 %38 to i64
  %40 = getelementptr inbounds %struct.b2MoveResult, ptr %37, i64 %39
  %41 = getelementptr inbounds nuw %struct.b2QueryPairContext, ptr %11, i32 0, i32 1
  store ptr %40, ptr %41, align 8, !tbaa !111
  %42 = getelementptr inbounds nuw %struct.b2QueryPairContext, ptr %11, i32 0, i32 1
  %43 = load ptr, ptr %42, align 8, !tbaa !111
  %44 = getelementptr inbounds nuw %struct.b2MoveResult, ptr %43, i32 0, i32 0
  store ptr null, ptr %44, align 8, !tbaa !98
  call void @llvm.lifetime.start.p0(i64 4, ptr %14) #8
  %45 = load ptr, ptr %10, align 8, !tbaa !3
  %46 = getelementptr inbounds nuw %struct.b2BroadPhase, ptr %45, i32 0, i32 3
  %47 = getelementptr inbounds nuw %struct.b2IntArray, ptr %46, i32 0, i32 0
  %48 = load ptr, ptr %47, align 8, !tbaa !45
  %49 = load i32, ptr %12, align 4, !tbaa !20
  %50 = sext i32 %49 to i64
  %51 = getelementptr inbounds i32, ptr %48, i64 %50
  %52 = load i32, ptr %51, align 4, !tbaa !20
  store i32 %52, ptr %14, align 4, !tbaa !20
  %53 = load i32, ptr %14, align 4, !tbaa !20
  %54 = icmp eq i32 %53, -1
  br i1 %54, label %55, label %56

55:                                               ; preds = %34
  store i32 4, ptr %13, align 4
  br label %144

56:                                               ; preds = %34
  call void @llvm.lifetime.start.p0(i64 4, ptr %15) #8
  %57 = load i32, ptr %14, align 4, !tbaa !20
  %58 = and i32 %57, 3
  store i32 %58, ptr %15, align 4, !tbaa !20
  call void @llvm.lifetime.start.p0(i64 4, ptr %16) #8
  %59 = load i32, ptr %14, align 4, !tbaa !20
  %60 = ashr i32 %59, 2
  store i32 %60, ptr %16, align 4, !tbaa !20
  %61 = load i32, ptr %14, align 4, !tbaa !20
  %62 = getelementptr inbounds nuw %struct.b2QueryPairContext, ptr %11, i32 0, i32 3
  store i32 %61, ptr %62, align 4, !tbaa !112
  call void @llvm.lifetime.start.p0(i64 8, ptr %17) #8
  %63 = load ptr, ptr %10, align 8, !tbaa !3
  %64 = getelementptr inbounds nuw %struct.b2BroadPhase, ptr %63, i32 0, i32 0
  %65 = getelementptr inbounds [3 x %struct.b2DynamicTree], ptr %64, i64 0, i64 0
  %66 = load i32, ptr %15, align 4, !tbaa !20
  %67 = zext i32 %66 to i64
  %68 = getelementptr inbounds nuw %struct.b2DynamicTree, ptr %65, i64 %67
  store ptr %68, ptr %17, align 8, !tbaa !113
  call void @llvm.lifetime.start.p0(i64 16, ptr %18) #8
  %69 = load ptr, ptr %17, align 8, !tbaa !113
  %70 = load i32, ptr %16, align 4, !tbaa !20
  %71 = call { <2 x float>, <2 x float> } @b2DynamicTree_GetAABB(ptr noundef %69, i32 noundef %70)
  %72 = getelementptr inbounds nuw { <2 x float>, <2 x float> }, ptr %18, i32 0, i32 0
  %73 = extractvalue { <2 x float>, <2 x float> } %71, 0
  store <2 x float> %73, ptr %72, align 4
  %74 = getelementptr inbounds nuw { <2 x float>, <2 x float> }, ptr %18, i32 0, i32 1
  %75 = extractvalue { <2 x float>, <2 x float> } %71, 1
  store <2 x float> %75, ptr %74, align 4
  %76 = load ptr, ptr %17, align 8, !tbaa !113
  %77 = load i32, ptr %16, align 4, !tbaa !20
  %78 = call i32 @b2DynamicTree_GetUserData(ptr noundef %76, i32 noundef %77)
  %79 = getelementptr inbounds nuw %struct.b2QueryPairContext, ptr %11, i32 0, i32 4
  store i32 %78, ptr %79, align 8, !tbaa !115
  call void @llvm.lifetime.start.p0(i64 8, ptr %19) #8
  call void @llvm.memset.p0.i64(ptr align 4 %19, i8 0, i64 8, i1 false)
  %80 = load i32, ptr %15, align 4, !tbaa !20
  %81 = icmp eq i32 %80, 2
  br i1 %81, label %82, label %123

82:                                               ; preds = %56
  %83 = getelementptr inbounds nuw %struct.b2QueryPairContext, ptr %11, i32 0, i32 2
  store i32 1, ptr %83, align 8, !tbaa !116
  call void @llvm.lifetime.start.p0(i64 8, ptr %20) #8
  %84 = load ptr, ptr %10, align 8, !tbaa !3
  %85 = getelementptr inbounds nuw %struct.b2BroadPhase, ptr %84, i32 0, i32 0
  %86 = getelementptr inbounds [3 x %struct.b2DynamicTree], ptr %85, i64 0, i64 0
  %87 = getelementptr inbounds %struct.b2DynamicTree, ptr %86, i64 1
  %88 = getelementptr inbounds nuw { <2 x float>, <2 x float> }, ptr %18, i32 0, i32 0
  %89 = load <2 x float>, ptr %88, align 4
  %90 = getelementptr inbounds nuw { <2 x float>, <2 x float> }, ptr %18, i32 0, i32 1
  %91 = load <2 x float>, ptr %90, align 4
  %92 = call i64 @b2DynamicTree_Query(ptr noundef %87, <2 x float> %89, <2 x float> %91, i64 noundef -1, ptr noundef @b2PairQueryCallback, ptr noundef %11)
  store i64 %92, ptr %20, align 4
  %93 = getelementptr inbounds nuw %struct.b2TreeStats, ptr %20, i32 0, i32 0
  %94 = load i32, ptr %93, align 4, !tbaa !117
  %95 = getelementptr inbounds nuw %struct.b2TreeStats, ptr %19, i32 0, i32 0
  %96 = load i32, ptr %95, align 4, !tbaa !117
  %97 = add nsw i32 %96, %94
  store i32 %97, ptr %95, align 4, !tbaa !117
  %98 = getelementptr inbounds nuw %struct.b2TreeStats, ptr %20, i32 0, i32 1
  %99 = load i32, ptr %98, align 4, !tbaa !119
  %100 = getelementptr inbounds nuw %struct.b2TreeStats, ptr %19, i32 0, i32 1
  %101 = load i32, ptr %100, align 4, !tbaa !119
  %102 = add nsw i32 %101, %99
  store i32 %102, ptr %100, align 4, !tbaa !119
  %103 = getelementptr inbounds nuw %struct.b2QueryPairContext, ptr %11, i32 0, i32 2
  store i32 0, ptr %103, align 8, !tbaa !116
  call void @llvm.lifetime.start.p0(i64 8, ptr %21) #8
  %104 = load ptr, ptr %10, align 8, !tbaa !3
  %105 = getelementptr inbounds nuw %struct.b2BroadPhase, ptr %104, i32 0, i32 0
  %106 = getelementptr inbounds [3 x %struct.b2DynamicTree], ptr %105, i64 0, i64 0
  %107 = getelementptr inbounds %struct.b2DynamicTree, ptr %106, i64 0
  %108 = getelementptr inbounds nuw { <2 x float>, <2 x float> }, ptr %18, i32 0, i32 0
  %109 = load <2 x float>, ptr %108, align 4
  %110 = getelementptr inbounds nuw { <2 x float>, <2 x float> }, ptr %18, i32 0, i32 1
  %111 = load <2 x float>, ptr %110, align 4
  %112 = call i64 @b2DynamicTree_Query(ptr noundef %107, <2 x float> %109, <2 x float> %111, i64 noundef -1, ptr noundef @b2PairQueryCallback, ptr noundef %11)
  store i64 %112, ptr %21, align 4
  %113 = getelementptr inbounds nuw %struct.b2TreeStats, ptr %21, i32 0, i32 0
  %114 = load i32, ptr %113, align 4, !tbaa !117
  %115 = getelementptr inbounds nuw %struct.b2TreeStats, ptr %19, i32 0, i32 0
  %116 = load i32, ptr %115, align 4, !tbaa !117
  %117 = add nsw i32 %116, %114
  store i32 %117, ptr %115, align 4, !tbaa !117
  %118 = getelementptr inbounds nuw %struct.b2TreeStats, ptr %21, i32 0, i32 1
  %119 = load i32, ptr %118, align 4, !tbaa !119
  %120 = getelementptr inbounds nuw %struct.b2TreeStats, ptr %19, i32 0, i32 1
  %121 = load i32, ptr %120, align 4, !tbaa !119
  %122 = add nsw i32 %121, %119
  store i32 %122, ptr %120, align 4, !tbaa !119
  call void @llvm.lifetime.end.p0(i64 8, ptr %21) #8
  call void @llvm.lifetime.end.p0(i64 8, ptr %20) #8
  br label %123

123:                                              ; preds = %82, %56
  %124 = getelementptr inbounds nuw %struct.b2QueryPairContext, ptr %11, i32 0, i32 2
  store i32 2, ptr %124, align 8, !tbaa !116
  call void @llvm.lifetime.start.p0(i64 8, ptr %22) #8
  %125 = load ptr, ptr %10, align 8, !tbaa !3
  %126 = getelementptr inbounds nuw %struct.b2BroadPhase, ptr %125, i32 0, i32 0
  %127 = getelementptr inbounds [3 x %struct.b2DynamicTree], ptr %126, i64 0, i64 0
  %128 = getelementptr inbounds %struct.b2DynamicTree, ptr %127, i64 2
  %129 = getelementptr inbounds nuw { <2 x float>, <2 x float> }, ptr %18, i32 0, i32 0
  %130 = load <2 x float>, ptr %129, align 4
  %131 = getelementptr inbounds nuw { <2 x float>, <2 x float> }, ptr %18, i32 0, i32 1
  %132 = load <2 x float>, ptr %131, align 4
  %133 = call i64 @b2DynamicTree_Query(ptr noundef %128, <2 x float> %130, <2 x float> %132, i64 noundef -1, ptr noundef @b2PairQueryCallback, ptr noundef %11)
  store i64 %133, ptr %22, align 4
  %134 = getelementptr inbounds nuw %struct.b2TreeStats, ptr %22, i32 0, i32 0
  %135 = load i32, ptr %134, align 4, !tbaa !117
  %136 = getelementptr inbounds nuw %struct.b2TreeStats, ptr %19, i32 0, i32 0
  %137 = load i32, ptr %136, align 4, !tbaa !117
  %138 = add nsw i32 %137, %135
  store i32 %138, ptr %136, align 4, !tbaa !117
  %139 = getelementptr inbounds nuw %struct.b2TreeStats, ptr %22, i32 0, i32 1
  %140 = load i32, ptr %139, align 4, !tbaa !119
  %141 = getelementptr inbounds nuw %struct.b2TreeStats, ptr %19, i32 0, i32 1
  %142 = load i32, ptr %141, align 4, !tbaa !119
  %143 = add nsw i32 %142, %140
  store i32 %143, ptr %141, align 4, !tbaa !119
  call void @llvm.lifetime.end.p0(i64 8, ptr %22) #8
  call void @llvm.lifetime.end.p0(i64 8, ptr %19) #8
  call void @llvm.lifetime.end.p0(i64 16, ptr %18) #8
  call void @llvm.lifetime.end.p0(i64 8, ptr %17) #8
  call void @llvm.lifetime.end.p0(i64 4, ptr %16) #8
  call void @llvm.lifetime.end.p0(i64 4, ptr %15) #8
  store i32 0, ptr %13, align 4
  br label %144

144:                                              ; preds = %123, %55
  call void @llvm.lifetime.end.p0(i64 4, ptr %14) #8
  %145 = load i32, ptr %13, align 4
  switch i32 %145, label %151 [
    i32 0, label %146
    i32 4, label %147
  ]

146:                                              ; preds = %144
  br label %147

147:                                              ; preds = %146, %144
  %148 = load i32, ptr %12, align 4, !tbaa !20
  %149 = add nsw i32 %148, 1
  store i32 %149, ptr %12, align 4, !tbaa !20
  br label %29, !llvm.loop !120

150:                                              ; preds = %33
  call void @llvm.lifetime.end.p0(i64 32, ptr %11) #8
  call void @llvm.lifetime.end.p0(i64 8, ptr %10) #8
  call void @llvm.lifetime.end.p0(i64 8, ptr %9) #8
  ret void

151:                                              ; preds = %144
  unreachable
}