; Function Attrs: nounwind uwtable
define internal void @b2FindPairsTask(i32 noundef %0, i32 noundef %1, i32 %2, ptr noundef %3) #5 {
  %5 = alloca %struct.b2QueryPairContext, align 8
  %6 = getelementptr inbounds nuw i8, ptr %3, i64 40
  call void @llvm.lifetime.start.p0(i64 32, ptr nonnull %5) #8
  store ptr %3, ptr %5, align 8, !tbaa !97
  %7 = icmp slt i32 %0, %1
  br i1 %7, label %.lr.ph, label %._crit_edge

.lr.ph:                                           ; preds = %4
  %8 = getelementptr inbounds nuw i8, ptr %3, i64 296
  %9 = getelementptr inbounds nuw i8, ptr %5, i64 8
  %10 = getelementptr inbounds nuw i8, ptr %3, i64 280
  %11 = getelementptr inbounds nuw i8, ptr %5, i64 20
  %12 = getelementptr inbounds nuw i8, ptr %5, i64 24
  %13 = getelementptr inbounds nuw i8, ptr %5, i64 16
  %14 = getelementptr inbounds nuw i8, ptr %3, i64 112
  %15 = getelementptr inbounds nuw i8, ptr %3, i64 184
  %16 = sext i32 %0 to i64
  br label %17

._crit_edge:                                      ; preds = %39, %4
  call void @llvm.lifetime.end.p0(i64 32, ptr nonnull %5) #8
  ret void

17:                                               ; preds = %.lr.ph, %39
  %indvars.iv = phi i64 [ %16, %.lr.ph ], [ %indvars.iv.next, %39 ]
  %18 = load ptr, ptr %8, align 8, !tbaa !35
  %19 = getelementptr inbounds %struct.b2MoveResult, ptr %18, i64 %indvars.iv
  store ptr %19, ptr %9, align 8, !tbaa !100
  store ptr null, ptr %19, align 8, !tbaa !85
  %20 = load ptr, ptr %10, align 8, !tbaa !33
  %21 = getelementptr inbounds i32, ptr %20, i64 %indvars.iv
  %22 = load i32, ptr %21, align 4, !tbaa !21
  %23 = icmp eq i32 %22, -1
  br i1 %23, label %39, label %24

24:                                               ; preds = %17
  %25 = and i32 %22, 3
  %26 = ashr i32 %22, 2
  store i32 %22, ptr %11, align 4, !tbaa !101
  %27 = zext nneg i32 %25 to i64
  %28 = getelementptr inbounds nuw %struct.b2DynamicTree, ptr %6, i64 %27
  %29 = call { <2 x float>, <2 x float> } @b2DynamicTree_GetAABB(ptr noundef nonnull %28, i32 noundef %26) #8
  %30 = extractvalue { <2 x float>, <2 x float> } %29, 0
  %31 = extractvalue { <2 x float>, <2 x float> } %29, 1
  %32 = call i32 @b2DynamicTree_GetUserData(ptr noundef nonnull %28, i32 noundef %26) #8
  store i32 %32, ptr %12, align 8, !tbaa !102
  %33 = icmp eq i32 %25, 2
  br i1 %33, label %34, label %37

34:                                               ; preds = %24
  store i32 1, ptr %13, align 8, !tbaa !103
  %35 = call i64 @b2DynamicTree_Query(ptr noundef nonnull %14, <2 x float> %30, <2 x float> %31, i64 noundef -1, ptr noundef nonnull @b2PairQueryCallback, ptr noundef nonnull %5) #8
  store i32 0, ptr %13, align 8, !tbaa !103
  %36 = call i64 @b2DynamicTree_Query(ptr noundef nonnull %6, <2 x float> %30, <2 x float> %31, i64 noundef -1, ptr noundef nonnull @b2PairQueryCallback, ptr noundef nonnull %5) #8
  br label %37

37:                                               ; preds = %34, %24
  store i32 2, ptr %13, align 8, !tbaa !103
  %38 = call i64 @b2DynamicTree_Query(ptr noundef nonnull %15, <2 x float> %30, <2 x float> %31, i64 noundef -1, ptr noundef nonnull @b2PairQueryCallback, ptr noundef nonnull %5) #8
  br label %39

39:                                               ; preds = %17, %37
  %indvars.iv.next = add nsw i64 %indvars.iv, 1
  %lftr.wideiv = trunc i64 %indvars.iv.next to i32
  %exitcond.not = icmp eq i32 %1, %lftr.wideiv
  br i1 %exitcond.not, label %._crit_edge, label %17, !llvm.loop !104
}